(lp0
V53e7bc32-827c-49be-ba50-730b3ad12cce
p1
aVa873b06b-d7b5-43ca-b401-36888fc146f2
p2
aVc5a9520a-12c6-4a04-aef3-55258d855c44
p3
aVe23e0f8f-c4ec-4b9a-9ce3-1f8fb022f7ae
p4
aV97c5543f-0b14-4bc0-ad77-9028487e94da
p5
aVb1188729-534d-4018-bbf4-c1681d7087b5
p6
aVf8661f4f-8c5c-43a1-880a-9f4010f7e53c
p7
aV037ba5f5-5e96-46aa-9055-5680d7f39617
p8
a.